target datalayout = "e-m:e-p270:32:32-p271:32:32-p272:64:64-i64:64-i128:128-f80:128-n8:16:32:64-S128"
target triple = "x86_64-pc-linux-gnu"

%struct.ImVector.1 = type { i32, i32, ptr }
%struct.ImFont = type <{ %struct.ImVector.7, float, float, %struct.ImVector.1, %struct.ImVector.8, ptr, ptr, ptr, i16, i16, i16, i16, float, float, float, float, float, i32, i8, [1 x i8], [6 x i8] }>
%struct.ImVector.7 = type { i32, i32, ptr }
%struct.ImVector.8 = type { i32, i32, ptr }

; Function Attrs: inlinehint mustprogress uwtable
define linkonce_odr void @_ZN8ImVectorItE5clearEv(ptr noundef nonnull align 8 dereferenceable(16) %0) #5 comdat align 2 {
  %2 = alloca ptr, align 8
  store ptr %0, ptr %2, align 8, !tbaa !68
  %3 = load ptr, ptr %2, align 8
  %4 = getelementptr inbounds nuw %struct.ImVector.1, ptr %3, i32 0, i32 2
  %5 = load ptr, ptr %4, align 8, !tbaa !72
  %6 = icmp ne ptr %5, null
  br i1 %6, label %7, label %13

7:                                                ; preds = %1
  %8 = getelementptr inbounds nuw %struct.ImVector.1, ptr %3, i32 0, i32 1
  store i32 0, ptr %8, align 4, !tbaa !70
  %9 = getelementptr inbounds nuw %struct.ImVector.1, ptr %3, i32 0, i32 0
  store i32 0, ptr %9, align 8, !tbaa !71
  %10 = getelementptr inbounds nuw %struct.ImVector.1, ptr %3, i32 0, i32 2
  %11 = load ptr, ptr %10, align 8, !tbaa !72
  call void @_ZN5ImGui7MemFreeEPv(ptr noundef %11)
  %12 = getelementptr inbounds nuw %struct.ImVector.1, ptr %3, i32 0, i32 2
  store ptr null, ptr %12, align 8, !tbaa !72
  br label %13

13:                                               ; preds = %7, %1
  ret void
}

; Function Attrs: inlinehint mustprogress uwtable
define linkonce_odr void @_ZN8ImVectorIfE5clearEv(ptr noundef nonnull align 8 dereferenceable(16) %0) #5 comdat align 2 {
  %2 = alloca ptr, align 8
  store ptr %0, ptr %2, align 8, !tbaa !518
  %3 = load ptr, ptr %2, align 8
  %4 = getelementptr inbounds nuw %struct.ImVector.7, ptr %3, i32 0, i32 2
  %5 = load ptr, ptr %4, align 8, !tbaa !522
  %6 = icmp ne ptr %5, null
  br i1 %6, label %7, label %13

7:                                                ; preds = %1
  %8 = getelementptr inbounds nuw %struct.ImVector.7, ptr %3, i32 0, i32 1
  store i32 0, ptr %8, align 4, !tbaa !520
  %9 = getelementptr inbounds nuw %struct.ImVector.7, ptr %3, i32 0, i32 0
  store i32 0, ptr %9, align 8, !tbaa !521
  %10 = getelementptr inbounds nuw %struct.ImVector.7, ptr %3, i32 0, i32 2
  %11 = load ptr, ptr %10, align 8, !tbaa !522
  call void @_ZN5ImGui7MemFreeEPv(ptr noundef %11)
  %12 = getelementptr inbounds nuw %struct.ImVector.7, ptr %3, i32 0, i32 2
  store ptr null, ptr %12, align 8, !tbaa !522
  br label %13

13:                                               ; preds = %7, %1
  ret void
}

; Function Attrs: inlinehint mustprogress uwtable
define linkonce_odr void @_ZN8ImVectorI11ImFontGlyphE5clearEv(ptr noundef nonnull align 8 dereferenceable(16) %0) #5 comdat align 2 {
  %2 = alloca ptr, align 8
  store ptr %0, ptr %2, align 8, !tbaa !496
  %3 = load ptr, ptr %2, align 8
  %4 = getelementptr inbounds nuw %struct.ImVector.8, ptr %3, i32 0, i32 2
  %5 = load ptr, ptr %4, align 8, !tbaa !498
  %6 = icmp ne ptr %5, null
  br i1 %6, label %7, label %13

7:                                                ; preds = %1
  %8 = getelementptr inbounds nuw %struct.ImVector.8, ptr %3, i32 0, i32 1
  store i32 0, ptr %8, align 4, !tbaa !523
  %9 = getelementptr inbounds nuw %struct.ImVector.8, ptr %3, i32 0, i32 0
  store i32 0, ptr %9, align 8, !tbaa !499
  %10 = getelementptr inbounds nuw %struct.ImVector.8, ptr %3, i32 0, i32 2
  %11 = load ptr, ptr %10, align 8, !tbaa !498
  call void @_ZN5ImGui7MemFreeEPv(ptr noundef %11)
  %12 = getelementptr inbounds nuw %struct.ImVector.8, ptr %3, i32 0, i32 2
  store ptr null, ptr %12, align 8, !tbaa !498
  br label %13

13:                                               ; preds = %7, %1
  ret void
}

; Function Attrs: mustprogress uwtable
define void @_ZN6ImFont15ClearOutputDataEv(ptr noundef nonnull align 8 dereferenceable(114) %0) #6 align 2 {
  %2 = alloca ptr, align 8
  store ptr %0, ptr %2, align 8, !tbaa !185
  %3 = load ptr, ptr %2, align 8
  %4 = getelementptr inbounds nuw %struct.ImFont, ptr %3, i32 0, i32 2
  store float 0.000000e+00, ptr %4, align 4, !tbaa !189
  %5 = getelementptr inbounds nuw %struct.ImFont, ptr %3, i32 0, i32 1
  store float 0.000000e+00, ptr %5, align 8, !tbaa !459
  %6 = getelementptr inbounds nuw %struct.ImFont, ptr %3, i32 0, i32 4
  call void @_ZN8ImVectorI11ImFontGlyphE5clearEv(ptr noundef nonnull align 8 dereferenceable(16) %6)
  %7 = getelementptr inbounds nuw %struct.ImFont, ptr %3, i32 0, i32 0
  call void @_ZN8ImVectorIfE5clearEv(ptr noundef nonnull align 8 dereferenceable(16) %7)
  %8 = getelementptr inbounds nuw %struct.ImFont, ptr %3, i32 0, i32 3
  call void @_ZN8ImVectorItE5clearEv(ptr noundef nonnull align 8 dereferenceable(16) %8)
  %9 = getelementptr inbounds nuw %struct.ImFont, ptr %3, i32 0, i32 5
  store ptr null, ptr %9, align 8, !tbaa !460
  %10 = getelementptr inbounds nuw %struct.ImFont, ptr %3, i32 0, i32 6
  store ptr null, ptr %10, align 8, !tbaa !457
  %11 = getelementptr inbounds nuw %struct.ImFont, ptr %3, i32 0, i32 18
  store i8 1, ptr %11, align 8, !tbaa !461
  %12 = getelementptr inbounds nuw %struct.ImFont, ptr %3, i32 0, i32 16
  store float 0.000000e+00, ptr %12, align 8, !tbaa !458
  %13 = getelementptr inbounds nuw %struct.ImFont, ptr %3, i32 0, i32 15
  store float 0.000000e+00, ptr %13, align 4, !tbaa !443
  %14 = getelementptr inbounds nuw %struct.ImFont, ptr %3, i32 0, i32 17
  store i32 0, ptr %14, align 4, !tbaa !462
  %15 = getelementptr inbounds nuw %struct.ImFont, ptr %3, i32 0, i32 19
  %16 = getelementptr inbounds [1 x i8], ptr %15, i64 0, i64 0
  call void @llvm.memset.p0.i64(ptr align 1 %16, i8 0, i64 1, i1 false)
  ret void
}