; Function Attrs: mustprogress uwtable
define void @_ZN6ImFont15ClearOutputDataEv(ptr noundef nonnull align 8 captures(none) dereferenceable(114) initializes((16, 24), (56, 72), (100, 114)) %0) local_unnamed_addr #12 align 2 {
  %2 = getelementptr inbounds nuw i8, ptr %0, i64 20
  store float 0.000000e+00, ptr %2, align 4, !tbaa !149
  %3 = getelementptr inbounds nuw i8, ptr %0, i64 16
  store float 0.000000e+00, ptr %3, align 8, !tbaa !507
  %4 = getelementptr inbounds nuw i8, ptr %0, i64 48
  %5 = load ptr, ptr %4, align 8, !tbaa !508
  %.not.i = icmp eq ptr %5, null
  br i1 %.not.i, label %_ZN8ImVectorI11ImFontGlyphE5clearEv.exit, label %6

6:                                                ; preds = %1
  %7 = getelementptr inbounds nuw i8, ptr %0, i64 40
  %8 = getelementptr inbounds nuw i8, ptr %0, i64 44
  store i32 0, ptr %8, align 4, !tbaa !509
  store i32 0, ptr %7, align 8, !tbaa !510
  tail call void @_ZN5ImGui7MemFreeEPv(ptr noundef nonnull %5)
  store ptr null, ptr %4, align 8, !tbaa !508
  br label %_ZN8ImVectorI11ImFontGlyphE5clearEv.exit

_ZN8ImVectorI11ImFontGlyphE5clearEv.exit:         ; preds = %1, %6
  %9 = getelementptr inbounds nuw i8, ptr %0, i64 8
  %10 = load ptr, ptr %9, align 8, !tbaa !511
  %.not.i1 = icmp eq ptr %10, null
  br i1 %.not.i1, label %_ZN8ImVectorIfE5clearEv.exit, label %11

11:                                               ; preds = %_ZN8ImVectorI11ImFontGlyphE5clearEv.exit
  %12 = getelementptr inbounds nuw i8, ptr %0, i64 4
  store i32 0, ptr %12, align 4, !tbaa !512
  store i32 0, ptr %0, align 8, !tbaa !513
  tail call void @_ZN5ImGui7MemFreeEPv(ptr noundef nonnull %10)
  store ptr null, ptr %9, align 8, !tbaa !511
  br label %_ZN8ImVectorIfE5clearEv.exit

_ZN8ImVectorIfE5clearEv.exit:                     ; preds = %_ZN8ImVectorI11ImFontGlyphE5clearEv.exit, %11
  %13 = getelementptr inbounds nuw i8, ptr %0, i64 32
  %14 = load ptr, ptr %13, align 8, !tbaa !50
  %.not.i2 = icmp eq ptr %14, null
  br i1 %.not.i2, label %_ZN8ImVectorItE5clearEv.exit, label %15

15:                                               ; preds = %_ZN8ImVectorIfE5clearEv.exit
  %16 = getelementptr inbounds nuw i8, ptr %0, i64 24
  %17 = getelementptr inbounds nuw i8, ptr %0, i64 28
  store i32 0, ptr %17, align 4, !tbaa !54
  store i32 0, ptr %16, align 8, !tbaa !55
  tail call void @_ZN5ImGui7MemFreeEPv(ptr noundef nonnull %14)
  store ptr null, ptr %13, align 8, !tbaa !50
  br label %_ZN8ImVectorItE5clearEv.exit

_ZN8ImVectorItE5clearEv.exit:                     ; preds = %_ZN8ImVectorIfE5clearEv.exit, %15
  %18 = getelementptr inbounds nuw i8, ptr %0, i64 56
  %19 = getelementptr inbounds nuw i8, ptr %0, i64 112
  tail call void @llvm.memset.p0.i64(ptr noundef nonnull align 8 dereferenceable(16) %18, i8 0, i64 16, i1 false)
  store i8 1, ptr %19, align 8, !tbaa !514
  %20 = getelementptr inbounds nuw i8, ptr %0, i64 104
  store float 0.000000e+00, ptr %20, align 8, !tbaa !517
  %21 = getelementptr inbounds nuw i8, ptr %0, i64 100
  store float 0.000000e+00, ptr %21, align 4, !tbaa !506
  %22 = getelementptr inbounds nuw i8, ptr %0, i64 108
  store i32 0, ptr %22, align 4, !tbaa !515
  %23 = getelementptr inbounds nuw i8, ptr %0, i64 113
  store i8 0, ptr %23, align 1
  ret void
}